# SymbolsHelper-Confirmed: 4:5.23.0 amd64
libKSysGuardSensors.so.1 libksysguardsensors1 #MINVER#
* Build-Depends-Package: libkf5sysguard-dev
 _ZN9KSysGuard11SensorQuery10sortByNameEv@Base 4:5.20.85
 _ZN9KSysGuard11SensorQuery11qt_metacallEN11QMetaObject4CallEiPPv@Base 4:5.19.4
 _ZN9KSysGuard11SensorQuery11qt_metacastEPKc@Base 4:5.19.4
 _ZN9KSysGuard11SensorQuery15waitForFinishedEv@Base 4:5.19.4
 _ZN9KSysGuard11SensorQuery16staticMetaObjectE@Base 4:5.19.4
 _ZN9KSysGuard11SensorQuery7Private12updateResultERK17QDBusPendingReplyI5QHashI7QStringNS_10SensorInfoEEvvvvvvvE@Base 4:5.19.4
 _ZN9KSysGuard11SensorQuery7executeEv@Base 4:5.19.4
 _ZN9KSysGuard11SensorQuery7setPathERK7QString@Base 4:5.19.4
 _ZN9KSysGuard11SensorQuery8finishedEPKS0_@Base 4:5.19.4
 _ZN9KSysGuard11SensorQueryC1ERK7QStringP7QObject@Base 4:5.19.4
 _ZN9KSysGuard11SensorQueryC2ERK7QStringP7QObject@Base 4:5.19.4
 _ZN9KSysGuard11SensorQueryD0Ev@Base 4:5.19.4
 _ZN9KSysGuard11SensorQueryD1Ev@Base 4:5.19.4
 _ZN9KSysGuard11SensorQueryD2Ev@Base 4:5.19.4
 _ZN9KSysGuard15SensorDataModel10classBeginEv@Base 4:5.19.4
 _ZN9KSysGuard15SensorDataModel10setEnabledEb@Base 4:5.20.3
 _ZN9KSysGuard15SensorDataModel10setSensorsERK11QStringList@Base 4:5.19.4
 _ZN9KSysGuard15SensorDataModel11qt_metacallEN11QMetaObject4CallEiPPv@Base 4:5.19.4
 _ZN9KSysGuard15SensorDataModel11qt_metacastEPKc@Base 4:5.19.4
 _ZN9KSysGuard15SensorDataModel12readyChangedEv@Base 4:5.20.85
 _ZN9KSysGuard15SensorDataModel12removeSensorERK7QString@Base 4:5.19.4
 _ZN9KSysGuard15SensorDataModel13onSensorAddedERK7QString@Base 4:5.19.4
 _ZN9KSysGuard15SensorDataModel14enabledChangedEv@Base 4:5.20.3
 _ZN9KSysGuard15SensorDataModel14onValueChangedERK7QStringRK8QVariant@Base 4:5.19.4
 _ZN9KSysGuard15SensorDataModel15onSensorRemovedERK7QString@Base 4:5.19.4
 _ZN9KSysGuard15SensorDataModel15setSensorColorsERK4QMapI7QString8QVariantE@Base 4:5.20.85
 _ZN9KSysGuard15SensorDataModel15setSensorLabelsERK4QMapI7QString8QVariantE@Base 4:5.23.0
 _ZN9KSysGuard15SensorDataModel16staticMetaObjectE@Base 4:5.19.4
 _ZN9KSysGuard15SensorDataModel17componentCompleteEv@Base 4:5.19.4
 _ZN9KSysGuard15SensorDataModel17onMetaDataChangedERK7QStringRKNS_10SensorInfoE@Base 4:5.19.4
 _ZN9KSysGuard15SensorDataModel18setUpdateRateLimitEi@Base 4:5.21.80
 _ZN9KSysGuard15SensorDataModel19sensorColorsChangedEv@Base 4:5.20.85
 _ZN9KSysGuard15SensorDataModel19sensorLabelsChangedEv@Base 4:5.23.0
 _ZN9KSysGuard15SensorDataModel20resetUpdateRateLimitEv@Base 4:5.21.80
 _ZN9KSysGuard15SensorDataModel21sensorMetaDataChangedEv@Base 4:5.19.4
 _ZN9KSysGuard15SensorDataModel22updateRateLimitChangedEv@Base 4:5.21.80
 _ZN9KSysGuard15SensorDataModel9addSensorERK7QString@Base 4:5.19.4
 _ZN9KSysGuard15SensorDataModelC1ERK11QStringListP7QObject@Base 4:5.19.4
 _ZN9KSysGuard15SensorDataModelC2ERK11QStringListP7QObject@Base 4:5.19.4
 _ZN9KSysGuard15SensorDataModelD0Ev@Base 4:5.19.4
 _ZN9KSysGuard15SensorDataModelD1Ev@Base 4:5.19.4
 _ZN9KSysGuard15SensorDataModelD2Ev@Base 4:5.19.4
 _ZN9KSysGuard15SensorTreeModel11qt_metacallEN11QMetaObject4CallEiPPv@Base 4:5.19.4
 _ZN9KSysGuard15SensorTreeModel11qt_metacastEPKc@Base 4:5.19.4
 _ZN9KSysGuard15SensorTreeModel13onSensorAddedERK7QString@Base 4:5.19.4
 _ZN9KSysGuard15SensorTreeModel15onSensorRemovedERK7QString@Base 4:5.19.4
 _ZN9KSysGuard15SensorTreeModel16staticMetaObjectE@Base 4:5.19.4
 _ZN9KSysGuard15SensorTreeModel17onMetaDataChangedERK7QStringRKNS_10SensorInfoE@Base 4:5.19.4
 _ZN9KSysGuard15SensorTreeModel4initEv@Base 4:5.19.4
 _ZN9KSysGuard15SensorTreeModelC1EP7QObject@Base 4:5.19.4
 _ZN9KSysGuard15SensorTreeModelC2EP7QObject@Base 4:5.19.4
 _ZN9KSysGuard15SensorTreeModelD0Ev@Base 4:5.19.4
 _ZN9KSysGuard15SensorTreeModelD1Ev@Base 4:5.19.4
 _ZN9KSysGuard15SensorTreeModelD2Ev@Base 4:5.19.4
 _ZN9KSysGuard15SensorUnitModel10setSensorsERK11QStringList@Base 4:5.23.0
 _ZN9KSysGuard15SensorUnitModel11qt_metacallEN11QMetaObject4CallEiPPv@Base 4:5.23.0
 _ZN9KSysGuard15SensorUnitModel11qt_metacastEPKc@Base 4:5.23.0
 _ZN9KSysGuard15SensorUnitModel12readyChangedEv@Base 4:5.23.0
 _ZN9KSysGuard15SensorUnitModel14sensorsChangedEv@Base 4:5.23.0
 _ZN9KSysGuard15SensorUnitModel15metaDataChangedERK7QStringRKNS_10SensorInfoE@Base 4:5.23.0
 _ZN9KSysGuard15SensorUnitModel16staticMetaObjectE@Base 4:5.23.0
 _ZN9KSysGuard15SensorUnitModelC1EP7QObject@Base 4:5.23.0
 _ZN9KSysGuard15SensorUnitModelC2EP7QObject@Base 4:5.23.0
 _ZN9KSysGuard15SensorUnitModelD0Ev@Base 4:5.23.0
 _ZN9KSysGuard15SensorUnitModelD1Ev@Base 4:5.23.0
 _ZN9KSysGuard15SensorUnitModelD2Ev@Base 4:5.23.0
 _ZN9KSysGuard6Sensor10classBeginEv@Base 4:5.19.4
 _ZN9KSysGuard6Sensor10setEnabledEb@Base 4:5.19.4
 _ZN9KSysGuard6Sensor11qt_metacallEN11QMetaObject4CallEiPPv@Base 4:5.19.4
 _ZN9KSysGuard6Sensor11qt_metacastEPKc@Base 4:5.19.4
 _ZN9KSysGuard6Sensor11setSensorIdERK7QString@Base 4:5.19.4
 _ZN9KSysGuard6Sensor14enabledChangedEv@Base 4:5.19.4
 _ZN9KSysGuard6Sensor14onValueChangedERK7QStringRK8QVariant@Base 4:5.19.4
 _ZN9KSysGuard6Sensor16onEnabledChangedEv@Base 4:5.19.4
 _ZN9KSysGuard6Sensor16staticMetaObjectE@Base 4:5.19.4
 _ZN9KSysGuard6Sensor17componentCompleteEv@Base 4:5.19.4
 _ZN9KSysGuard6Sensor17onMetaDataChangedERK7QStringRKNS_10SensorInfoE@Base 4:5.19.4
 _ZN9KSysGuard6Sensor18setUpdateRateLimitEi@Base 4:5.21.80
 _ZN9KSysGuard6Sensor20resetUpdateRateLimitEv@Base 4:5.21.80
 _ZN9KSysGuard6Sensor21updateIntervalChangedEv@Base 4:5.20.85
 _ZN9KSysGuard6Sensor22updateRateLimitChangedEv@Base 4:5.21.80
 _ZN9KSysGuard6Sensor5eventEP6QEvent@Base 4:5.19.4
 _ZN9KSysGuard6SensorC1EP7QObject@Base 4:5.19.4
 _ZN9KSysGuard6SensorC1ERK7QStringP7QObject@Base 4:5.19.4
 _ZN9KSysGuard6SensorC1ERKNS_11SensorQueryEiP7QObject@Base 4:5.19.4
 _ZN9KSysGuard6SensorC2EP7QObject@Base 4:5.19.4
 _ZN9KSysGuard6SensorC2ERK7QStringP7QObject@Base 4:5.19.4
 _ZN9KSysGuard6SensorC2ERKNS_11SensorQueryEiP7QObject@Base 4:5.19.4
 _ZN9KSysGuard6SensorD0Ev@Base 4:5.19.4
 _ZN9KSysGuard6SensorD1Ev@Base 4:5.19.4
 _ZN9KSysGuard6SensorD2Ev@Base 4:5.19.4
 _ZNK9KSysGuard11SensorQuery10metaObjectEv@Base 4:5.19.4
 _ZNK9KSysGuard11SensorQuery4pathEv@Base 4:5.19.4
 _ZNK9KSysGuard11SensorQuery6resultEv@Base 4:5.19.4
 _ZNK9KSysGuard11SensorQuery9sensorIdsEv@Base 4:5.19.4
 _ZNK9KSysGuard15SensorDataModel10headerDataEiN2Qt11OrientationEi@Base 4:5.19.4
 _ZNK9KSysGuard15SensorDataModel10metaObjectEv@Base 4:5.19.4
 _ZNK9KSysGuard15SensorDataModel11columnCountERK11QModelIndex@Base 4:5.19.4
 _ZNK9KSysGuard15SensorDataModel12sensorColorsEv@Base 4:5.20.85
 _ZNK9KSysGuard15SensorDataModel12sensorLabelsEv@Base 4:5.23.0
 _ZNK9KSysGuard15SensorDataModel14sensorsChangedEv@Base 4:5.19.4
 _ZNK9KSysGuard15SensorDataModel15updateRateLimitEv@Base 4:5.21.80
 _ZNK9KSysGuard15SensorDataModel4dataERK11QModelIndexi@Base 4:5.19.4
 _ZNK9KSysGuard15SensorDataModel6columnERK7QString@Base 4:5.19.4
 _ZNK9KSysGuard15SensorDataModel7enabledEv@Base 4:5.20.3
 _ZNK9KSysGuard15SensorDataModel7isReadyEv@Base 4:5.20.85
 _ZNK9KSysGuard15SensorDataModel7maximumEv@Base 4:5.19.4
 _ZNK9KSysGuard15SensorDataModel7minimumEv@Base 4:5.19.4
 _ZNK9KSysGuard15SensorDataModel7sensorsEv@Base 4:5.19.4
 _ZNK9KSysGuard15SensorDataModel8rowCountERK11QModelIndex@Base 4:5.19.4
 _ZNK9KSysGuard15SensorDataModel9roleNamesEv@Base 4:5.19.4
 _ZNK9KSysGuard15SensorTreeModel10headerDataEiN2Qt11OrientationEi@Base 4:5.19.4
 _ZNK9KSysGuard15SensorTreeModel10metaObjectEv@Base 4:5.19.4
 _ZNK9KSysGuard15SensorTreeModel11columnCountERK11QModelIndex@Base 4:5.19.4
 _ZNK9KSysGuard15SensorTreeModel4dataERK11QModelIndexi@Base 4:5.19.4
 _ZNK9KSysGuard15SensorTreeModel5flagsERK11QModelIndex@Base 4:5.19.4
 _ZNK9KSysGuard15SensorTreeModel5indexEiiRK11QModelIndex@Base 4:5.19.4
 _ZNK9KSysGuard15SensorTreeModel6parentERK11QModelIndex@Base 4:5.19.4
 _ZNK9KSysGuard15SensorTreeModel8mimeDataERK5QListI11QModelIndexE@Base 4:5.19.4
 _ZNK9KSysGuard15SensorTreeModel8rowCountERK11QModelIndex@Base 4:5.19.4
 _ZNK9KSysGuard15SensorTreeModel9mimeTypesEv@Base 4:5.19.4
 _ZNK9KSysGuard15SensorTreeModel9roleNamesEv@Base 4:5.19.4
 _ZNK9KSysGuard15SensorUnitModel10metaObjectEv@Base 4:5.23.0
 _ZNK9KSysGuard15SensorUnitModel4dataERK11QModelIndexi@Base 4:5.23.0
 _ZNK9KSysGuard15SensorUnitModel5readyEv@Base 4:5.23.0
 _ZNK9KSysGuard15SensorUnitModel7sensorsEv@Base 4:5.23.0
 _ZNK9KSysGuard15SensorUnitModel8rowCountERK11QModelIndex@Base 4:5.23.0
 _ZNK9KSysGuard15SensorUnitModel9roleNamesEv@Base 4:5.23.0
 _ZNK9KSysGuard6Sensor10metaObjectEv@Base 4:5.19.4
 _ZNK9KSysGuard6Sensor11descriptionEv@Base 4:5.19.4
 _ZNK9KSysGuard6Sensor12valueChangedEv@Base 4:5.19.4
 _ZNK9KSysGuard6Sensor13statusChangedEv@Base 4:5.19.4
 _ZNK9KSysGuard6Sensor14formattedValueEv@Base 4:5.19.4
 _ZNK9KSysGuard6Sensor14updateIntervalEv@Base 4:5.20.85
 _ZNK9KSysGuard6Sensor15metaDataChangedEv@Base 4:5.19.4
 _ZNK9KSysGuard6Sensor15sensorIdChangedEv@Base 4:5.19.4
 _ZNK9KSysGuard6Sensor15updateRateLimitEv@Base 4:5.21.80
 _ZNK9KSysGuard6Sensor4nameEv@Base 4:5.19.4
 _ZNK9KSysGuard6Sensor4typeEv@Base 4:5.19.4
 _ZNK9KSysGuard6Sensor4unitEv@Base 4:5.19.4
 _ZNK9KSysGuard6Sensor5valueEv@Base 4:5.19.4
 _ZNK9KSysGuard6Sensor6statusEv@Base 4:5.19.4
 _ZNK9KSysGuard6Sensor7enabledEv@Base 4:5.19.4
 _ZNK9KSysGuard6Sensor7maximumEv@Base 4:5.19.4
 _ZNK9KSysGuard6Sensor7minimumEv@Base 4:5.19.4
 _ZNK9KSysGuard6Sensor8sensorIdEv@Base 4:5.19.4
 _ZNK9KSysGuard6Sensor9shortNameEv@Base 4:5.19.4
 _ZTIN9KSysGuard11SensorQueryE@Base 4:5.19.4
 _ZTIN9KSysGuard15SensorDataModelE@Base 4:5.19.4
 _ZTIN9KSysGuard15SensorTreeModelE@Base 4:5.19.4
 _ZTIN9KSysGuard15SensorUnitModelE@Base 4:5.23.0
 _ZTIN9KSysGuard6SensorE@Base 4:5.19.4
 _ZTSN9KSysGuard11SensorQueryE@Base 4:5.19.4
 _ZTSN9KSysGuard15SensorDataModelE@Base 4:5.19.4
 _ZTSN9KSysGuard15SensorTreeModelE@Base 4:5.19.4
 _ZTSN9KSysGuard15SensorUnitModelE@Base 4:5.23.0
 _ZTSN9KSysGuard6SensorE@Base 4:5.19.4
 _ZTVN9KSysGuard11SensorQueryE@Base 4:5.19.4
 _ZTVN9KSysGuard15SensorDataModelE@Base 4:5.19.4
 _ZTVN9KSysGuard15SensorTreeModelE@Base 4:5.19.4
 _ZTVN9KSysGuard15SensorUnitModelE@Base 4:5.23.0
 _ZTVN9KSysGuard6SensorE@Base 4:5.19.4
 (c++)"non-virtual thunk to KSysGuard::Sensor::classBegin()@Base" 4:5.19.4
 (c++)"non-virtual thunk to KSysGuard::Sensor::componentComplete()@Base" 4:5.19.4
 (c++)"non-virtual thunk to KSysGuard::Sensor::~Sensor()@Base" 4:5.19.4
 (c++)"non-virtual thunk to KSysGuard::SensorDataModel::classBegin()@Base" 4:5.19.4
 (c++)"non-virtual thunk to KSysGuard::SensorDataModel::componentComplete()@Base" 4:5.19.4
 (c++)"non-virtual thunk to KSysGuard::SensorDataModel::~SensorDataModel()@Base" 4:5.19.4
